target datalayout = "e-m:e-p270:32:32-p271:32:32-p272:64:64-i64:64-i128:128-f80:128-n8:16:32:64-S128"
target triple = "x86_64-pc-linux-gnu"

%class.basic_decl_plugin = type { %class.decl_plugin.base, ptr, ptr, ptr, ptr, ptr, ptr, ptr, ptr, %class.ptr_vector.41, %class.ptr_vector.41, %class.ptr_vector.41, ptr, ptr, ptr, ptr, ptr, ptr, ptr, ptr, ptr, ptr, ptr, ptr, ptr, ptr, ptr, ptr, ptr, ptr, %class.ptr_vector.41, %class.ptr_vector.41, %class.ptr_vector.41, %class.ptr_vector.41, %class.ptr_vector.41, ptr, ptr, ptr, ptr, ptr, ptr, %class.ptr_vector.41, ptr, ptr, ptr, ptr, ptr, ptr, ptr, ptr, ptr, %class.ptr_vector.41, %class.ptr_vector.41, %class.ptr_vector.41, %class.ptr_vector.41, ptr }
%class.decl_plugin.base = type <{ ptr, ptr, i32 }>
%class.ptr_vector.41 = type { %class.vector.42 }
%class.vector.42 = type { ptr }

; Function Attrs: mustprogress nounwind uwtable
define hidden noundef zeroext i1 @_ZNK17basic_decl_plugin17check_proof_sortsE13basic_op_kindjPKP4sort(ptr noundef nonnull align 8 dereferenceable(464) %0, i32 noundef %1, i32 noundef %2, ptr noundef %3) #4 align 2 {
  %5 = alloca i1, align 1
  %6 = alloca ptr, align 8
  %7 = alloca i32, align 4
  %8 = alloca i32, align 4
  %9 = alloca ptr, align 8
  %10 = alloca i32, align 4
  %11 = alloca i32, align 4
  store ptr %0, ptr %6, align 8, !tbaa !241
  store i32 %1, ptr %7, align 4, !tbaa !243
  store i32 %2, ptr %8, align 4, !tbaa !25
  store ptr %3, ptr %9, align 8, !tbaa !112
  %12 = load ptr, ptr %6, align 8
  %13 = load i32, ptr %7, align 4, !tbaa !243
  %14 = icmp eq i32 %13, 12
  br i1 %14, label %15, label %18

15:                                               ; preds = %4
  %16 = load i32, ptr %8, align 4, !tbaa !25
  %17 = icmp eq i32 %16, 0
  store i1 %17, ptr %5, align 1
  br label %68

18:                                               ; preds = %4
  %19 = load i32, ptr %8, align 4, !tbaa !25
  %20 = icmp eq i32 %19, 0
  br i1 %20, label %21, label %22

21:                                               ; preds = %18
  store i1 false, ptr %5, align 1
  br label %68

22:                                               ; preds = %18
  call void @llvm.lifetime.start.p0(i64 4, ptr %10) #3
  store i32 0, ptr %10, align 4, !tbaa !25
  br label %23

23:                                               ; preds = %40, %22
  %24 = load i32, ptr %10, align 4, !tbaa !25
  %25 = load i32, ptr %8, align 4, !tbaa !25
  %26 = sub i32 %25, 1
  %27 = icmp ult i32 %24, %26
  br i1 %27, label %29, label %28

28:                                               ; preds = %23
  store i32 2, ptr %11, align 4
  br label %43

29:                                               ; preds = %23
  %30 = load ptr, ptr %9, align 8, !tbaa !112
  %31 = load i32, ptr %10, align 4, !tbaa !25
  %32 = zext i32 %31 to i64
  %33 = getelementptr inbounds nuw ptr, ptr %30, i64 %32
  %34 = load ptr, ptr %33, align 8, !tbaa !114
  %35 = getelementptr inbounds nuw %class.basic_decl_plugin, ptr %12, i32 0, i32 12
  %36 = load ptr, ptr %35, align 8, !tbaa !245
  %37 = icmp ne ptr %34, %36
  br i1 %37, label %38, label %39

38:                                               ; preds = %29
  store i1 false, ptr %5, align 1
  store i32 1, ptr %11, align 4
  br label %43

39:                                               ; preds = %29
  br label %40

40:                                               ; preds = %39
  %41 = load i32, ptr %10, align 4, !tbaa !25
  %42 = add i32 %41, 1
  store i32 %42, ptr %10, align 4, !tbaa !25
  br label %23, !llvm.loop !250

43:                                               ; preds = %38, %28
  call void @llvm.lifetime.end.p0(i64 4, ptr %10) #3
  %44 = load i32, ptr %11, align 4
  switch i32 %44, label %70 [
    i32 2, label %45
    i32 1, label %68
  ]

45:                                               ; preds = %43
  %46 = load ptr, ptr %9, align 8, !tbaa !112
  %47 = load i32, ptr %8, align 4, !tbaa !25
  %48 = sub i32 %47, 1
  %49 = zext i32 %48 to i64
  %50 = getelementptr inbounds nuw ptr, ptr %46, i64 %49
  %51 = load ptr, ptr %50, align 8, !tbaa !114
  %52 = getelementptr inbounds nuw %class.basic_decl_plugin, ptr %12, i32 0, i32 1
  %53 = load ptr, ptr %52, align 8, !tbaa !251
  %54 = icmp eq ptr %51, %53
  br i1 %54, label %66, label %55

55:                                               ; preds = %45
  %56 = load ptr, ptr %9, align 8, !tbaa !112
  %57 = load i32, ptr %8, align 4, !tbaa !25
  %58 = sub i32 %57, 1
  %59 = zext i32 %58 to i64
  %60 = getelementptr inbounds nuw ptr, ptr %56, i64 %59
  %61 = load ptr, ptr %60, align 8, !tbaa !114
  %62 = getelementptr inbounds nuw %class.basic_decl_plugin, ptr %12, i32 0, i32 12
  %63 = load ptr, ptr %62, align 8, !tbaa !245
  %64 = icmp eq ptr %61, %63
  br i1 %64, label %66, label %65

65:                                               ; preds = %55
  br label %66

66:                                               ; preds = %65, %55, %45
  %67 = phi i1 [ true, %55 ], [ true, %45 ], [ true, %65 ]
  store i1 %67, ptr %5, align 1
  br label %68

68:                                               ; preds = %66, %43, %21, %15
  %69 = load i1, ptr %5, align 1
  ret i1 %69

70:                                               ; preds = %43
  unreachable
}