; Function Attrs: mustprogress nofree norecurse nosync nounwind willreturn memory(argmem: read) uwtable
define hidden noundef zeroext i1 @_ZNK17basic_decl_plugin17check_proof_sortsE13basic_op_kindjPKP4sort(ptr noundef nonnull readonly align 8 captures(none) dereferenceable(464) %0, i32 noundef %1, i32 noundef %2, ptr noundef readonly captures(none) %3) local_unnamed_addr #17 align 2 {
  %5 = icmp eq i32 %1, 12
  %6 = icmp eq i32 %2, 0
  %brmerge = or i1 %5, %6
  %.mux = and i1 %5, %6
  br i1 %brmerge, label %.loopexit, label %.preheader

.preheader:                                       ; preds = %4
  %7 = add i32 %2, -1
  %8 = icmp eq i32 %7, 0
  br i1 %8, label %.loopexit, label %.lr.ph

.lr.ph:                                           ; preds = %.preheader
  %9 = getelementptr inbounds nuw i8, ptr %0, i64 112
  %10 = load ptr, ptr %9, align 8, !tbaa !219
  %wide.trip.count = zext i32 %7 to i64
  br label %11

11:                                               ; preds = %11, %.lr.ph
  %indvars.iv = phi i64 [ 0, %.lr.ph ], [ %indvars.iv.next, %11 ]
  %12 = getelementptr inbounds nuw ptr, ptr %3, i64 %indvars.iv
  %13 = load ptr, ptr %12, align 8, !tbaa !142
  %.not = icmp eq ptr %13, %10
  %indvars.iv.next = add nuw nsw i64 %indvars.iv, 1
  %exitcond.not = icmp ne i64 %indvars.iv.next, %wide.trip.count
  %or.cond.not = select i1 %.not, i1 %exitcond.not, i1 false
  br i1 %or.cond.not, label %11, label %.loopexit, !llvm.loop !224

.loopexit:                                        ; preds = %11, %4, %.preheader
  %.013 = phi i1 [ true, %.preheader ], [ %.mux, %4 ], [ %.not, %11 ]
  ret i1 %.013
}